target datalayout = "e-m:e-p270:32:32-p271:32:32-p272:64:64-i64:64-i128:128-f80:128-n8:16:32:64-S128"
target triple = "x86_64-pc-linux-gnu"

%struct.ARKodeARKStepMemRec = type { ptr, ptr, i32, i32, i32, i32, i32, i32, ptr, ptr, ptr, ptr, ptr, ptr, i32, i32, i32, i32, ptr, ptr, ptr, ptr, i32, ptr, double, double, double, double, i32, double, double, double, double, double, double, i32, i64, i32, i32, i32, ptr, ptr, ptr, ptr, ptr, ptr, i32, ptr, ptr, ptr, ptr, ptr, ptr, i32, i32, i64, i64, i64, i64, i64, ptr, ptr, i32, i32, i32, double, double, ptr, i32, ptr, ptr }
%struct.ARKodeMemRec = type { ptr, double, ptr, i32, i32, double, double, ptr, i32, double, ptr, i32, i32, ptr, ptr, i32, ptr, ptr, i32, ptr, ptr, ptr, ptr, ptr, ptr, ptr, ptr, ptr, ptr, ptr, ptr, ptr, ptr, ptr, i32, ptr, ptr, i32, ptr, i32, ptr, ptr, ptr, ptr, ptr, ptr, ptr, ptr, ptr, ptr, ptr, ptr, ptr, ptr, ptr, ptr, ptr, ptr, ptr, ptr, ptr, ptr, ptr, ptr, ptr, ptr, i32, ptr, ptr, ptr, ptr, ptr, ptr, ptr, i32, ptr, ptr, ptr, i32, ptr, ptr, ptr, ptr, ptr, ptr, ptr, i32, i32, i32, i32, double, double, double, double, double, double, double, double, double, double, i32, ptr, i64, i32, i32, i32, i32, i64, i64, i32, i64, i64, i64, i64, i64, i64, i64, double, double, double, double, double, i32, double, double, i32, i32, i32, i32, i32, i32, i32, i32, ptr, i32, ptr, ptr, ptr, ptr, i32, i32, i32 }

@.str = private unnamed_addr constant [127 x i8] c"generated/home/dtcxzyw/WorkSpace/Projects/compilers/llvm-opt-benchmark/bench/sundials/sundials/src/arkode/arkode_arkstep_nls.c\00", align 1
@.str.9 = private unnamed_addr constant [33 x i8] c"Time step module memory is NULL.\00", align 1
@__func__.arkStep_Nls = private unnamed_addr constant [12 x i8] c"arkStep_Nls\00", align 1

; Function Attrs: nounwind uwtable
define i32 @arkStep_Nls(ptr noundef %0, i32 noundef %1) #0 {
  %3 = alloca i32, align 4
  %4 = alloca ptr, align 8
  %5 = alloca i32, align 4
  %6 = alloca ptr, align 8
  %7 = alloca i32, align 4
  %8 = alloca i64, align 8
  %9 = alloca i64, align 8
  %10 = alloca i32, align 4
  %11 = alloca i32, align 4
  store ptr %0, ptr %4, align 8, !tbaa !3
  store i32 %1, ptr %5, align 4, !tbaa !10
  call void @llvm.lifetime.start.p0(i64 8, ptr %6) #4
  call void @llvm.lifetime.start.p0(i64 4, ptr %7) #4
  call void @llvm.lifetime.start.p0(i64 8, ptr %8) #4
  store i64 0, ptr %8, align 8, !tbaa !84
  call void @llvm.lifetime.start.p0(i64 8, ptr %9) #4
  store i64 0, ptr %9, align 8, !tbaa !84
  call void @llvm.lifetime.start.p0(i64 4, ptr %10) #4
  %12 = load ptr, ptr %4, align 8, !tbaa !3
  %13 = getelementptr inbounds nuw %struct.ARKodeMemRec, ptr %12, i32 0, i32 19
  %14 = load ptr, ptr %13, align 8, !tbaa !65
  %15 = icmp eq ptr %14, null
  br i1 %15, label %16, label %18

16:                                               ; preds = %2
  %17 = load ptr, ptr %4, align 8, !tbaa !3
  call void (ptr, i32, i32, ptr, ptr, ptr, ...) @arkProcessError(ptr noundef %17, i32 noundef -21, i32 noundef 372, ptr noundef @__func__.arkStep_Nls, ptr noundef @.str, ptr noundef @.str.9)
  store i32 -21, ptr %3, align 4
  store i32 1, ptr %11, align 4
  br label %182

18:                                               ; preds = %2
  %19 = load ptr, ptr %4, align 8, !tbaa !3
  %20 = getelementptr inbounds nuw %struct.ARKodeMemRec, ptr %19, i32 0, i32 19
  %21 = load ptr, ptr %20, align 8, !tbaa !65
  store ptr %21, ptr %6, align 8, !tbaa !20
  %22 = load ptr, ptr %6, align 8, !tbaa !20
  %23 = getelementptr inbounds nuw %struct.ARKodeARKStepMemRec, ptr %22, i32 0, i32 42
  %24 = load ptr, ptr %23, align 8, !tbaa !68
  %25 = icmp ne ptr %24, null
  br i1 %25, label %26, label %113

26:                                               ; preds = %18
  %27 = load ptr, ptr %6, align 8, !tbaa !20
  %28 = getelementptr inbounds nuw %struct.ARKodeARKStepMemRec, ptr %27, i32 0, i32 3
  %29 = load i32, ptr %28, align 4, !tbaa !37
  %30 = icmp ne i32 %29, 0
  br i1 %30, label %31, label %37

31:                                               ; preds = %26
  %32 = load i32, ptr %5, align 4, !tbaa !10
  %33 = icmp eq i32 %32, 6
  %34 = select i1 %33, i32 0, i32 2
  %35 = load ptr, ptr %6, align 8, !tbaa !20
  %36 = getelementptr inbounds nuw %struct.ARKodeARKStepMemRec, ptr %35, i32 0, i32 38
  store i32 %34, ptr %36, align 4, !tbaa !72
  br label %48

37:                                               ; preds = %26
  %38 = load i32, ptr %5, align 4, !tbaa !10
  %39 = icmp eq i32 %38, 6
  br i1 %39, label %43, label %40

40:                                               ; preds = %37
  %41 = load i32, ptr %5, align 4, !tbaa !10
  %42 = icmp eq i32 %41, 8
  br label %43

43:                                               ; preds = %40, %37
  %44 = phi i1 [ true, %37 ], [ %42, %40 ]
  %45 = select i1 %44, i32 0, i32 2
  %46 = load ptr, ptr %6, align 8, !tbaa !20
  %47 = getelementptr inbounds nuw %struct.ARKodeARKStepMemRec, ptr %46, i32 0, i32 38
  store i32 %45, ptr %47, align 4, !tbaa !72
  br label %48

48:                                               ; preds = %43, %31
  %49 = load ptr, ptr %4, align 8, !tbaa !3
  %50 = getelementptr inbounds nuw %struct.ARKodeMemRec, ptr %49, i32 0, i32 130
  %51 = load i32, ptr %50, align 4, !tbaa !78
  %52 = icmp ne i32 %51, 0
  br i1 %52, label %68, label %53

53:                                               ; preds = %48
  %54 = load ptr, ptr %6, align 8, !tbaa !20
  %55 = getelementptr inbounds nuw %struct.ARKodeARKStepMemRec, ptr %54, i32 0, i32 35
  %56 = load i32, ptr %55, align 8, !tbaa !85
  %57 = icmp slt i32 %56, 0
  br i1 %57, label %68, label %58

58:                                               ; preds = %53
  %59 = load ptr, ptr %6, align 8, !tbaa !20
  %60 = getelementptr inbounds nuw %struct.ARKodeARKStepMemRec, ptr %59, i32 0, i32 26
  %61 = load double, ptr %60, align 8, !tbaa !79
  %62 = fsub double %61, 1.000000e+00
  %63 = call double @llvm.fabs.f64(double %62)
  %64 = load ptr, ptr %6, align 8, !tbaa !20
  %65 = getelementptr inbounds nuw %struct.ARKodeARKStepMemRec, ptr %64, i32 0, i32 27
  %66 = load double, ptr %65, align 8, !tbaa !86
  %67 = fcmp ogt double %63, %66
  br label %68

68:                                               ; preds = %58, %53, %48
  %69 = phi i1 [ true, %53 ], [ true, %48 ], [ %67, %58 ]
  %70 = zext i1 %69 to i32
  store i32 %70, ptr %7, align 4, !tbaa !10
  %71 = load ptr, ptr %6, align 8, !tbaa !20
  %72 = getelementptr inbounds nuw %struct.ARKodeARKStepMemRec, ptr %71, i32 0, i32 3
  %73 = load i32, ptr %72, align 4, !tbaa !37
  %74 = icmp ne i32 %73, 0
  br i1 %74, label %75, label %86

75:                                               ; preds = %68
  %76 = load i32, ptr %7, align 4, !tbaa !10
  %77 = icmp ne i32 %76, 0
  br i1 %77, label %83, label %78

78:                                               ; preds = %75
  %79 = load ptr, ptr %6, align 8, !tbaa !20
  %80 = getelementptr inbounds nuw %struct.ARKodeARKStepMemRec, ptr %79, i32 0, i32 4
  %81 = load i32, ptr %80, align 8, !tbaa !87
  %82 = icmp ne i32 %81, 0
  br label %83

83:                                               ; preds = %78, %75
  %84 = phi i1 [ true, %75 ], [ %82, %78 ]
  %85 = zext i1 %84 to i32
  store i32 %85, ptr %7, align 4, !tbaa !10
  br label %112

86:                                               ; preds = %68
  %87 = load i32, ptr %7, align 4, !tbaa !10
  %88 = icmp ne i32 %87, 0
  br i1 %88, label %109, label %89

89:                                               ; preds = %86
  %90 = load i32, ptr %5, align 4, !tbaa !10
  %91 = icmp eq i32 %90, 7
  br i1 %91, label %109, label %92

92:                                               ; preds = %89
  %93 = load i32, ptr %5, align 4, !tbaa !10
  %94 = icmp eq i32 %93, 8
  br i1 %94, label %109, label %95

95:                                               ; preds = %92
  %96 = load ptr, ptr %4, align 8, !tbaa !3
  %97 = getelementptr inbounds nuw %struct.ARKodeMemRec, ptr %96, i32 0, i32 108
  %98 = load i64, ptr %97, align 8, !tbaa !81
  %99 = load ptr, ptr %6, align 8, !tbaa !20
  %100 = getelementptr inbounds nuw %struct.ARKodeARKStepMemRec, ptr %99, i32 0, i32 36
  %101 = load i64, ptr %100, align 8, !tbaa !82
  %102 = load ptr, ptr %6, align 8, !tbaa !20
  %103 = getelementptr inbounds nuw %struct.ARKodeARKStepMemRec, ptr %102, i32 0, i32 35
  %104 = load i32, ptr %103, align 8, !tbaa !85
  %105 = call i32 @llvm.abs.i32(i32 %104, i1 true)
  %106 = sext i32 %105 to i64
  %107 = add nsw i64 %101, %106
  %108 = icmp sge i64 %98, %107
  br label %109

109:                                              ; preds = %95, %92, %89, %86
  %110 = phi i1 [ true, %92 ], [ true, %89 ], [ true, %86 ], [ %108, %95 ]
  %111 = zext i1 %110 to i32
  store i32 %111, ptr %7, align 4, !tbaa !10
  br label %112

112:                                              ; preds = %109, %83
  br label %116

113:                                              ; preds = %18
  %114 = load ptr, ptr %6, align 8, !tbaa !20
  %115 = getelementptr inbounds nuw %struct.ARKodeARKStepMemRec, ptr %114, i32 0, i32 31
  store double 1.000000e+00, ptr %115, align 8, !tbaa !39
  store i32 0, ptr %7, align 4, !tbaa !10
  br label %116

116:                                              ; preds = %113, %112
  %117 = load ptr, ptr %6, align 8, !tbaa !20
  %118 = getelementptr inbounds nuw %struct.ARKodeARKStepMemRec, ptr %117, i32 0, i32 13
  %119 = load ptr, ptr %118, align 8, !tbaa !88
  call void @N_VConst(double noundef 0.000000e+00, ptr noundef %119)
  %120 = load ptr, ptr %6, align 8, !tbaa !20
  %121 = getelementptr inbounds nuw %struct.ARKodeARKStepMemRec, ptr %120, i32 0, i32 34
  %122 = load double, ptr %121, align 8, !tbaa !62
  %123 = fmul double 1.000000e-01, %122
  %124 = load ptr, ptr %6, align 8, !tbaa !20
  %125 = getelementptr inbounds nuw %struct.ARKodeARKStepMemRec, ptr %124, i32 0, i32 33
  store double %123, ptr %125, align 8, !tbaa !83
  %126 = load ptr, ptr %6, align 8, !tbaa !20
  %127 = getelementptr inbounds nuw %struct.ARKodeARKStepMemRec, ptr %126, i32 0, i32 21
  %128 = load ptr, ptr %127, align 8, !tbaa !22
  %129 = load ptr, ptr %6, align 8, !tbaa !20
  %130 = getelementptr inbounds nuw %struct.ARKodeARKStepMemRec, ptr %129, i32 0, i32 12
  %131 = load ptr, ptr %130, align 8, !tbaa !45
  %132 = load ptr, ptr %6, align 8, !tbaa !20
  %133 = getelementptr inbounds nuw %struct.ARKodeARKStepMemRec, ptr %132, i32 0, i32 13
  %134 = load ptr, ptr %133, align 8, !tbaa !88
  %135 = load ptr, ptr %4, align 8, !tbaa !3
  %136 = getelementptr inbounds nuw %struct.ARKodeMemRec, ptr %135, i32 0, i32 72
  %137 = load ptr, ptr %136, align 8, !tbaa !89
  %138 = load ptr, ptr %6, align 8, !tbaa !20
  %139 = getelementptr inbounds nuw %struct.ARKodeARKStepMemRec, ptr %138, i32 0, i32 34
  %140 = load double, ptr %139, align 8, !tbaa !62
  %141 = load i32, ptr %7, align 4, !tbaa !10
  %142 = load ptr, ptr %4, align 8, !tbaa !3
  %143 = call i32 @SUNNonlinSolSolve(ptr noundef %128, ptr noundef %131, ptr noundef %134, ptr noundef %137, double noundef %140, i32 noundef %141, ptr noundef %142)
  store i32 %143, ptr %10, align 4, !tbaa !10
  %144 = load ptr, ptr %6, align 8, !tbaa !20
  %145 = getelementptr inbounds nuw %struct.ARKodeARKStepMemRec, ptr %144, i32 0, i32 21
  %146 = load ptr, ptr %145, align 8, !tbaa !22
  %147 = call i32 @SUNNonlinSolGetNumIters(ptr noundef %146, ptr noundef %8)
  %148 = load i64, ptr %8, align 8, !tbaa !84
  %149 = load ptr, ptr %6, align 8, !tbaa !20
  %150 = getelementptr inbounds nuw %struct.ARKodeARKStepMemRec, ptr %149, i32 0, i32 58
  %151 = load i64, ptr %150, align 8, !tbaa !66
  %152 = add nsw i64 %151, %148
  store i64 %152, ptr %150, align 8, !tbaa !66
  %153 = load ptr, ptr %6, align 8, !tbaa !20
  %154 = getelementptr inbounds nuw %struct.ARKodeARKStepMemRec, ptr %153, i32 0, i32 21
  %155 = load ptr, ptr %154, align 8, !tbaa !22
  %156 = call i32 @SUNNonlinSolGetNumConvFails(ptr noundef %155, ptr noundef %9)
  %157 = load i64, ptr %9, align 8, !tbaa !84
  %158 = load ptr, ptr %6, align 8, !tbaa !20
  %159 = getelementptr inbounds nuw %struct.ARKodeARKStepMemRec, ptr %158, i32 0, i32 59
  %160 = load i64, ptr %159, align 8, !tbaa !67
  %161 = add nsw i64 %160, %157
  store i64 %161, ptr %159, align 8, !tbaa !67
  %162 = load i32, ptr %10, align 4, !tbaa !10
  %163 = icmp eq i32 %162, 0
  br i1 %163, label %164, label %176

164:                                              ; preds = %116
  %165 = load ptr, ptr %6, align 8, !tbaa !20
  %166 = getelementptr inbounds nuw %struct.ARKodeARKStepMemRec, ptr %165, i32 0, i32 39
  store i32 0, ptr %166, align 8, !tbaa !77
  %167 = load ptr, ptr %6, align 8, !tbaa !20
  %168 = getelementptr inbounds nuw %struct.ARKodeARKStepMemRec, ptr %167, i32 0, i32 13
  %169 = load ptr, ptr %168, align 8, !tbaa !88
  %170 = load ptr, ptr %6, align 8, !tbaa !20
  %171 = getelementptr inbounds nuw %struct.ARKodeARKStepMemRec, ptr %170, i32 0, i32 12
  %172 = load ptr, ptr %171, align 8, !tbaa !45
  %173 = load ptr, ptr %4, align 8, !tbaa !3
  %174 = getelementptr inbounds nuw %struct.ARKodeMemRec, ptr %173, i32 0, i32 75
  %175 = load ptr, ptr %174, align 8, !tbaa !46
  call void @N_VLinearSum(double noundef 1.000000e+00, ptr noundef %169, double noundef 1.000000e+00, ptr noundef %172, ptr noundef %175)
  store i32 0, ptr %3, align 4
  store i32 1, ptr %11, align 4
  br label %182

176:                                              ; preds = %116
  %177 = load i32, ptr %10, align 4, !tbaa !10
  %178 = icmp eq i32 %177, 902
  br i1 %178, label %179, label %180

179:                                              ; preds = %176
  store i32 4, ptr %3, align 4
  store i32 1, ptr %11, align 4
  br label %182

180:                                              ; preds = %176
  %181 = load i32, ptr %10, align 4, !tbaa !10
  store i32 %181, ptr %3, align 4
  store i32 1, ptr %11, align 4
  br label %182

182:                                              ; preds = %180, %179, %164, %16
  call void @llvm.lifetime.end.p0(i64 4, ptr %10) #4
  call void @llvm.lifetime.end.p0(i64 8, ptr %9) #4
  call void @llvm.lifetime.end.p0(i64 8, ptr %8) #4
  call void @llvm.lifetime.end.p0(i64 4, ptr %7) #4
  call void @llvm.lifetime.end.p0(i64 8, ptr %6) #4
  %183 = load i32, ptr %3, align 4
  ret i32 %183
}